(dp0
S'F5'
p1
(lp2
(I961
I710
tp3
a(I1038
I788
tp4
asS'A1'
p5
(lp6
(I247
I98
tp7
a(I323
I180
tp8
asS'A3'
p9
(lp10
(I247
I402
tp11
a(I322
I482
tp12
asS'A2'
p13
(lp14
(I247
I251
tp15
a(I322
I331
tp16
asS'A5'
p17
(lp18
(I248
I701
tp19
a(I322
I780
tp20
asS'A4'
p21
(lp22
(I247
I552
tp23
a(I322
I632
tp24
asS'A6'
p25
(lp26
(I248
I848
tp27
a(I322
I926
tp28
asS'C3'
p29
(lp30
(I533
I404
tp31
a(I609
I485
tp32
asS'C2'
p33
(lp34
(I534
I252
tp35
a(I611
I333
tp36
asS'C1'
p37
(lp38
(I535
I99
tp39
a(I612
I181
tp40
asS'E6'
p41
(lp42
(I814
I856
tp43
a(I891
I935
tp44
asS'E1'
p45
(lp46
(I826
I102
tp47
a(I904
I183
tp48
asS'C6'
p49
(lp50
(I530
I853
tp51
a(I606
I931
tp52
asS'C5'
p53
(lp54
(I531
I705
tp55
a(I607
I785
tp56
asS'C4'
p57
(lp58
(I532
I555
tp59
a(I608
I636
tp60
asS'E5'
p61
(lp62
(I817
I708
tp63
a(I894
I788
tp64
asS'E4'
p65
(lp66
(I819
I558
tp67
a(I897
I638
tp68
asS'E3'
p69
(lp70
(I821
I407
tp71
a(I899
I487
tp72
asS'F1'
p73
(lp74
(I972
I101
tp75
a(I1051
I183
tp76
asS'F2'
p77
(lp78
(I969
I255
tp79
a(I1047
I336
tp80
asS'F3'
p81
(lp82
(I966
I408
tp83
a(I1044
I488
tp84
asS'F4'
p85
(lp86
(I963
I559
tp87
a(I1041
I639
tp88
asS'F6'
p89
(lp90
(I958
I858
tp91
a(I1035
I936
tp92
asS'E2'
p93
(lp94
(I824
I255
tp95
a(I901
I335
tp96
asS'B4'
p97
(lp98
(I389
I554
tp99
a(I465
I634
tp100
asS'B5'
p101
(lp102
(I389
I703
tp103
a(I464
I783
tp104
asS'B6'
p105
(lp106
(I389
I851
tp107
a(I463
I929
tp108
asS'B1'
p109
(lp110
(I391
I99
tp111
a(I467
I180
tp112
asS'B2'
p113
(lp114
(I390
I251
tp115
a(I466
I332
tp116
asS'B3'
p117
(lp118
(I389
I403
tp119
a(I465
I483
tp120
asS'D6'
p121
(lp122
(I672
I855
tp123
a(I748
I933
tp124
asS'D4'
p125
(lp126
(I676
I557
tp127
a(I752
I637
tp128
asS'D5'
p129
(lp130
(I674
I707
tp131
a(I750
I786
tp132
asS'D2'
p133
(lp134
(I679
I253
tp135
a(I756
I334
tp136
asS'D3'
p137
(lp138
(I677
I406
tp139
a(I754
I486
tp140
asS'D1'
p141
(lp142
(I680
I101
tp143
a(I758
I182
tp144
as.